; Function Attrs: mustprogress nounwind uwtable
define hidden noundef ptr @_ZN6Assimp8FindNodeEPNS_4D3DS4NodeERKNSt7__cxx1112basic_stringIcSt11char_traitsIcESaIcEEE(ptr noundef %root, ptr noundef nonnull align 8 dereferenceable(32) %name) local_unnamed_addr #0 personality ptr @__gxx_personality_v0 {
entry:
  %mName = getelementptr inbounds i8, ptr %root, i64 32
  %call.i = tail call noundef i64 @_ZNKSt7__cxx1112basic_stringIcSt11char_traitsIcESaIcEE4sizeEv(ptr noundef nonnull align 8 dereferenceable(32) %mName) #22
  %call1.i = tail call noundef i64 @_ZNKSt7__cxx1112basic_stringIcSt11char_traitsIcESaIcEE4sizeEv(ptr noundef nonnull align 8 dereferenceable(32) %name) #22
  %cmp.i = icmp eq i64 %call.i, %call1.i
  br i1 %cmp.i, label %land.rhs.i, label %if.end

land.rhs.i:                                       ; preds = %entry
  %call2.i = tail call noundef ptr @_ZNKSt7__cxx1112basic_stringIcSt11char_traitsIcESaIcEE4dataEv(ptr noundef nonnull align 8 dereferenceable(32) %mName) #22
  %call3.i = tail call noundef ptr @_ZNKSt7__cxx1112basic_stringIcSt11char_traitsIcESaIcEE4dataEv(ptr noundef nonnull align 8 dereferenceable(32) %name) #22
  %call4.i = tail call noundef i64 @_ZNKSt7__cxx1112basic_stringIcSt11char_traitsIcESaIcEE4sizeEv(ptr noundef nonnull align 8 dereferenceable(32) %mName) #22
  %cmp.i.i = icmp eq i64 %call4.i, 0
  br i1 %cmp.i.i, label %return, label %_ZSteqIcEN9__gnu_cxx11__enable_ifIXsr9__is_charIT_EE7__valueEbE6__typeERKNSt7__cxx1112basic_stringIS2_St11char_traitsIS2_ESaIS2_EEESC_.exit

_ZSteqIcEN9__gnu_cxx11__enable_ifIXsr9__is_charIT_EE7__valueEbE6__typeERKNSt7__cxx1112basic_stringIS2_St11char_traitsIS2_ESaIS2_EEESC_.exit: ; preds = %land.rhs.i
  %bcmp.i = tail call i32 @bcmp(ptr %call2.i, ptr %call3.i, i64 %call4.i)
  %0 = icmp eq i32 %bcmp.i, 0
  br i1 %0, label %return, label %if.end

if.end:                                           ; preds = %entry, %_ZSteqIcEN9__gnu_cxx11__enable_ifIXsr9__is_charIT_EE7__valueEbE6__typeERKNSt7__cxx1112basic_stringIS2_St11char_traitsIS2_ESaIS2_EEESC_.exit
  %mChildren = getelementptr inbounds i8, ptr %root, i64 8
  %1 = load ptr, ptr %mChildren, align 8
  %_M_finish.i = getelementptr inbounds i8, ptr %root, i64 16
  %2 = load ptr, ptr %_M_finish.i, align 8
  %cmp.i6.not10 = icmp eq ptr %1, %2
  br i1 %cmp.i6.not10, label %return, label %for.body

for.cond:                                         ; preds = %for.body
  %incdec.ptr.i = getelementptr inbounds i8, ptr %it.sroa.0.011, i64 8
  %3 = load ptr, ptr %_M_finish.i, align 8
  %cmp.i6.not = icmp eq ptr %incdec.ptr.i, %3
  br i1 %cmp.i6.not, label %return, label %for.body, !llvm.loop !106

for.body:                                         ; preds = %if.end, %for.cond
  %it.sroa.0.011 = phi ptr [ %incdec.ptr.i, %for.cond ], [ %1, %if.end ]
  %4 = load ptr, ptr %it.sroa.0.011, align 8
  %call7 = tail call noundef ptr @_ZN6Assimp8FindNodeEPNS_4D3DS4NodeERKNSt7__cxx1112basic_stringIcSt11char_traitsIcESaIcEEE(ptr noundef %4, ptr noundef nonnull align 8 dereferenceable(32) %name)
  %cmp.not = icmp eq ptr %call7, null
  br i1 %cmp.not, label %for.cond, label %return

return:                                           ; preds = %for.body, %for.cond, %if.end, %land.rhs.i, %_ZSteqIcEN9__gnu_cxx11__enable_ifIXsr9__is_charIT_EE7__valueEbE6__typeERKNSt7__cxx1112basic_stringIS2_St11char_traitsIS2_ESaIS2_EEESC_.exit
  %retval.0 = phi ptr [ %root, %_ZSteqIcEN9__gnu_cxx11__enable_ifIXsr9__is_charIT_EE7__valueEbE6__typeERKNSt7__cxx1112basic_stringIS2_St11char_traitsIS2_ESaIS2_EEESC_.exit ], [ %root, %land.rhs.i ], [ null, %if.end ], [ %call7, %for.body ], [ null, %for.cond ]
  ret ptr %retval.0
}